target datalayout = "e-m:e-p270:32:32-p271:32:32-p272:64:64-i64:64-i128:128-f80:128-n8:16:32:64-S128"
target triple = "x86_64-pc-linux-gnu"

; Function Attrs: nounwind uwtable
define hidden ptr @_m3d_safestr(ptr noundef %0, i32 noundef %1) #0 {
  %3 = alloca ptr, align 8
  %4 = alloca ptr, align 8
  %5 = alloca i32, align 4
  %6 = alloca ptr, align 8
  %7 = alloca ptr, align 8
  %8 = alloca ptr, align 8
  %9 = alloca i32, align 4
  %10 = alloca i32, align 4
  store ptr %0, ptr %4, align 8
  store i32 %1, ptr %5, align 4
  call void @llvm.lifetime.start.p0(i64 8, ptr %6) #16
  call void @llvm.lifetime.start.p0(i64 8, ptr %7) #16
  call void @llvm.lifetime.start.p0(i64 8, ptr %8) #16
  %11 = load ptr, ptr %4, align 8
  store ptr %11, ptr %8, align 8
  call void @llvm.lifetime.start.p0(i64 4, ptr %9) #16
  %12 = load ptr, ptr %4, align 8
  %13 = icmp ne ptr %12, null
  br i1 %13, label %14, label %18

14:                                               ; preds = %2
  %15 = load ptr, ptr %4, align 8
  %16 = load i8, ptr %15, align 1
  %17 = icmp ne i8 %16, 0
  br i1 %17, label %26, label %18

18:                                               ; preds = %14, %2
  %19 = call noalias ptr @malloc(i64 noundef 1) #20
  store ptr %19, ptr %6, align 8
  %20 = load ptr, ptr %6, align 8
  %21 = icmp ne ptr %20, null
  br i1 %21, label %23, label %22

22:                                               ; preds = %18
  store ptr null, ptr %3, align 8
  store i32 1, ptr %10, align 4
  br label %267

23:                                               ; preds = %18
  %24 = load ptr, ptr %6, align 8
  %25 = getelementptr inbounds i8, ptr %24, i64 0
  store i8 0, ptr %25, align 1
  br label %265

26:                                               ; preds = %14
  %27 = load ptr, ptr %4, align 8
  store ptr %27, ptr %7, align 8
  store i32 0, ptr %9, align 4
  br label %28

28:                                               ; preds = %53, %26
  %29 = load ptr, ptr %7, align 8
  %30 = load i8, ptr %29, align 1
  %31 = sext i8 %30 to i32
  %32 = icmp ne i32 %31, 0
  br i1 %32, label %33, label %50

33:                                               ; preds = %28
  %34 = load i32, ptr %5, align 4
  %35 = and i32 %34, 1
  %36 = icmp ne i32 %35, 0
  br i1 %36, label %47, label %37

37:                                               ; preds = %33
  %38 = load ptr, ptr %7, align 8
  %39 = load i8, ptr %38, align 1
  %40 = sext i8 %39 to i32
  %41 = icmp ne i32 %40, 13
  br i1 %41, label %42, label %50

42:                                               ; preds = %37
  %43 = load ptr, ptr %7, align 8
  %44 = load i8, ptr %43, align 1
  %45 = sext i8 %44 to i32
  %46 = icmp ne i32 %45, 10
  br i1 %46, label %47, label %50

47:                                               ; preds = %42, %33
  %48 = load i32, ptr %9, align 4
  %49 = icmp slt i32 %48, 256
  br label %50

50:                                               ; preds = %47, %42, %37, %28
  %51 = phi i1 [ false, %42 ], [ false, %37 ], [ false, %28 ], [ %49, %47 ]
  br i1 %51, label %52, label %58

52:                                               ; preds = %50
  br label %53

53:                                               ; preds = %52
  %54 = load ptr, ptr %7, align 8
  %55 = getelementptr inbounds nuw i8, ptr %54, i32 1
  store ptr %55, ptr %7, align 8
  %56 = load i32, ptr %9, align 4
  %57 = add nsw i32 %56, 1
  store i32 %57, ptr %9, align 4
  br label %28

58:                                               ; preds = %50
  %59 = load i32, ptr %9, align 4
  %60 = add nsw i32 %59, 1
  %61 = sext i32 %60 to i64
  %62 = call noalias ptr @malloc(i64 noundef %61) #20
  store ptr %62, ptr %7, align 8
  store ptr %62, ptr %6, align 8
  %63 = load ptr, ptr %6, align 8
  %64 = icmp ne ptr %63, null
  br i1 %64, label %66, label %65

65:                                               ; preds = %58
  store ptr null, ptr %3, align 8
  store i32 1, ptr %10, align 4
  br label %267

66:                                               ; preds = %58
  br label %67

67:                                               ; preds = %94, %66
  %68 = load ptr, ptr %8, align 8
  %69 = load i8, ptr %68, align 1
  %70 = sext i8 %69 to i32
  %71 = icmp eq i32 %70, 32
  br i1 %71, label %92, label %72

72:                                               ; preds = %67
  %73 = load ptr, ptr %8, align 8
  %74 = load i8, ptr %73, align 1
  %75 = sext i8 %74 to i32
  %76 = icmp eq i32 %75, 9
  br i1 %76, label %92, label %77

77:                                               ; preds = %72
  %78 = load ptr, ptr %8, align 8
  %79 = load i8, ptr %78, align 1
  %80 = sext i8 %79 to i32
  %81 = icmp eq i32 %80, 13
  br i1 %81, label %92, label %82

82:                                               ; preds = %77
  %83 = load i32, ptr %5, align 4
  %84 = icmp ne i32 %83, 0
  br i1 %84, label %85, label %90

85:                                               ; preds = %82
  %86 = load ptr, ptr %8, align 8
  %87 = load i8, ptr %86, align 1
  %88 = sext i8 %87 to i32
  %89 = icmp eq i32 %88, 10
  br label %90

90:                                               ; preds = %85, %82
  %91 = phi i1 [ false, %82 ], [ %89, %85 ]
  br label %92

92:                                               ; preds = %90, %77, %72, %67
  %93 = phi i1 [ true, %77 ], [ true, %72 ], [ true, %67 ], [ %91, %90 ]
  br i1 %93, label %94, label %97

94:                                               ; preds = %92
  %95 = load ptr, ptr %8, align 8
  %96 = getelementptr inbounds nuw i8, ptr %95, i32 1
  store ptr %96, ptr %8, align 8
  br label %67

97:                                               ; preds = %92
  br label %98

98:                                               ; preds = %215, %97
  %99 = load ptr, ptr %8, align 8
  %100 = load i8, ptr %99, align 1
  %101 = sext i8 %100 to i32
  %102 = icmp ne i32 %101, 0
  br i1 %102, label %103, label %120

103:                                              ; preds = %98
  %104 = load i32, ptr %5, align 4
  %105 = icmp ne i32 %104, 0
  br i1 %105, label %118, label %106

106:                                              ; preds = %103
  %107 = load ptr, ptr %8, align 8
  %108 = load i8, ptr %107, align 1
  %109 = sext i8 %108 to i32
  %110 = icmp ne i32 %109, 13
  br i1 %110, label %111, label %116

111:                                              ; preds = %106
  %112 = load ptr, ptr %8, align 8
  %113 = load i8, ptr %112, align 1
  %114 = sext i8 %113 to i32
  %115 = icmp ne i32 %114, 10
  br label %116

116:                                              ; preds = %111, %106
  %117 = phi i1 [ false, %106 ], [ %115, %111 ]
  br label %118

118:                                              ; preds = %116, %103
  %119 = phi i1 [ true, %103 ], [ %117, %116 ]
  br label %120

120:                                              ; preds = %118, %98
  %121 = phi i1 [ false, %98 ], [ %119, %118 ]
  br i1 %121, label %122, label %218

122:                                              ; preds = %120
  %123 = load ptr, ptr %8, align 8
  %124 = load i8, ptr %123, align 1
  %125 = sext i8 %124 to i32
  %126 = icmp eq i32 %125, 13
  br i1 %126, label %127, label %128

127:                                              ; preds = %122
  br label %215

128:                                              ; preds = %122
  %129 = load ptr, ptr %8, align 8
  %130 = load i8, ptr %129, align 1
  %131 = sext i8 %130 to i32
  %132 = icmp eq i32 %131, 10
  br i1 %132, label %133, label %173

133:                                              ; preds = %128
  %134 = load i32, ptr %5, align 4
  %135 = icmp sge i32 %134, 3
  br i1 %135, label %136, label %147

136:                                              ; preds = %133
  %137 = load ptr, ptr %7, align 8
  %138 = load ptr, ptr %6, align 8
  %139 = icmp ugt ptr %137, %138
  br i1 %139, label %140, label %147

140:                                              ; preds = %136
  %141 = load ptr, ptr %7, align 8
  %142 = getelementptr inbounds i8, ptr %141, i64 -1
  %143 = load i8, ptr %142, align 1
  %144 = sext i8 %143 to i32
  %145 = icmp eq i32 %144, 10
  br i1 %145, label %146, label %147

146:                                              ; preds = %140
  br label %218

147:                                              ; preds = %140, %136, %133
  %148 = load ptr, ptr %8, align 8
  %149 = load ptr, ptr %4, align 8
  %150 = icmp ugt ptr %148, %149
  br i1 %150, label %151, label %158

151:                                              ; preds = %147
  %152 = load ptr, ptr %8, align 8
  %153 = getelementptr inbounds i8, ptr %152, i64 -1
  %154 = load i8, ptr %153, align 1
  %155 = sext i8 %154 to i32
  %156 = icmp eq i32 %155, 10
  br i1 %156, label %157, label %158

157:                                              ; preds = %151
  br label %215

158:                                              ; preds = %151, %147
  %159 = load i32, ptr %5, align 4
  %160 = and i32 %159, 1
  %161 = icmp ne i32 %160, 0
  br i1 %161, label %162, label %171

162:                                              ; preds = %158
  %163 = load i32, ptr %5, align 4
  %164 = icmp eq i32 %163, 1
  br i1 %164, label %165, label %168

165:                                              ; preds = %162
  %166 = load ptr, ptr %7, align 8
  %167 = getelementptr inbounds nuw i8, ptr %166, i32 1
  store ptr %167, ptr %7, align 8
  store i8 13, ptr %166, align 1
  br label %168

168:                                              ; preds = %165, %162
  %169 = load ptr, ptr %7, align 8
  %170 = getelementptr inbounds nuw i8, ptr %169, i32 1
  store ptr %170, ptr %7, align 8
  store i8 10, ptr %169, align 1
  br label %172

171:                                              ; preds = %158
  br label %218

172:                                              ; preds = %168
  br label %214

173:                                              ; preds = %128
  %174 = load ptr, ptr %8, align 8
  %175 = load i8, ptr %174, align 1
  %176 = sext i8 %175 to i32
  %177 = icmp eq i32 %176, 32
  br i1 %177, label %183, label %178

178:                                              ; preds = %173
  %179 = load ptr, ptr %8, align 8
  %180 = load i8, ptr %179, align 1
  %181 = sext i8 %180 to i32
  %182 = icmp eq i32 %181, 9
  br i1 %182, label %183, label %190

183:                                              ; preds = %178, %173
  %184 = load i32, ptr %5, align 4
  %185 = icmp ne i32 %184, 0
  %186 = select i1 %185, i32 32, i32 95
  %187 = trunc i32 %186 to i8
  %188 = load ptr, ptr %7, align 8
  %189 = getelementptr inbounds nuw i8, ptr %188, i32 1
  store ptr %189, ptr %7, align 8
  store i8 %187, ptr %188, align 1
  br label %213

190:                                              ; preds = %178
  %191 = load i32, ptr %5, align 4
  %192 = icmp ne i32 %191, 0
  br i1 %192, label %204, label %193

193:                                              ; preds = %190
  %194 = load ptr, ptr %8, align 8
  %195 = load i8, ptr %194, align 1
  %196 = sext i8 %195 to i32
  %197 = icmp eq i32 %196, 47
  br i1 %197, label %203, label %198

198:                                              ; preds = %193
  %199 = load ptr, ptr %8, align 8
  %200 = load i8, ptr %199, align 1
  %201 = sext i8 %200 to i32
  %202 = icmp eq i32 %201, 92
  br i1 %202, label %203, label %204

203:                                              ; preds = %198, %193
  br label %208

204:                                              ; preds = %198, %190
  %205 = load ptr, ptr %8, align 8
  %206 = load i8, ptr %205, align 1
  %207 = sext i8 %206 to i32
  br label %208

208:                                              ; preds = %204, %203
  %209 = phi i32 [ 95, %203 ], [ %207, %204 ]
  %210 = trunc i32 %209 to i8
  %211 = load ptr, ptr %7, align 8
  %212 = getelementptr inbounds nuw i8, ptr %211, i32 1
  store ptr %212, ptr %7, align 8
  store i8 %210, ptr %211, align 1
  br label %213

213:                                              ; preds = %208, %183
  br label %214

214:                                              ; preds = %213, %172
  br label %215

215:                                              ; preds = %214, %157, %127
  %216 = load ptr, ptr %8, align 8
  %217 = getelementptr inbounds nuw i8, ptr %216, i32 1
  store ptr %217, ptr %8, align 8
  br label %98

218:                                              ; preds = %171, %146, %120
  br label %219

219:                                              ; preds = %252, %218
  %220 = load ptr, ptr %7, align 8
  %221 = load ptr, ptr %6, align 8
  %222 = icmp ugt ptr %220, %221
  br i1 %222, label %223, label %249

223:                                              ; preds = %219
  %224 = load ptr, ptr %7, align 8
  %225 = getelementptr inbounds i8, ptr %224, i64 -1
  %226 = load i8, ptr %225, align 1
  %227 = sext i8 %226 to i32
  %228 = icmp eq i32 %227, 32
  br i1 %228, label %247, label %229

229:                                              ; preds = %223
  %230 = load ptr, ptr %7, align 8
  %231 = getelementptr inbounds i8, ptr %230, i64 -1
  %232 = load i8, ptr %231, align 1
  %233 = sext i8 %232 to i32
  %234 = icmp eq i32 %233, 9
  br i1 %234, label %247, label %235

235:                                              ; preds = %229
  %236 = load ptr, ptr %7, align 8
  %237 = getelementptr inbounds i8, ptr %236, i64 -1
  %238 = load i8, ptr %237, align 1
  %239 = sext i8 %238 to i32
  %240 = icmp eq i32 %239, 13
  br i1 %240, label %247, label %241

241:                                              ; preds = %235
  %242 = load ptr, ptr %7, align 8
  %243 = getelementptr inbounds i8, ptr %242, i64 -1
  %244 = load i8, ptr %243, align 1
  %245 = sext i8 %244 to i32
  %246 = icmp eq i32 %245, 10
  br label %247

247:                                              ; preds = %241, %235, %229, %223
  %248 = phi i1 [ true, %235 ], [ true, %229 ], [ true, %223 ], [ %246, %241 ]
  br label %249

249:                                              ; preds = %247, %219
  %250 = phi i1 [ false, %219 ], [ %248, %247 ]
  br i1 %250, label %251, label %255

251:                                              ; preds = %249
  br label %252

252:                                              ; preds = %251
  %253 = load ptr, ptr %7, align 8
  %254 = getelementptr inbounds i8, ptr %253, i32 -1
  store ptr %254, ptr %7, align 8
  br label %219

255:                                              ; preds = %249
  %256 = load ptr, ptr %7, align 8
  store i8 0, ptr %256, align 1
  %257 = load ptr, ptr %6, align 8
  %258 = load ptr, ptr %7, align 8
  %259 = ptrtoint ptr %258 to i64
  %260 = load ptr, ptr %6, align 8
  %261 = ptrtoint ptr %260 to i64
  %262 = sub i64 %259, %261
  %263 = add i64 %262, 1
  %264 = call ptr @realloc(ptr noundef %257, i64 noundef %263) #18
  store ptr %264, ptr %6, align 8
  br label %265

265:                                              ; preds = %255, %23
  %266 = load ptr, ptr %6, align 8
  store ptr %266, ptr %3, align 8
  store i32 1, ptr %10, align 4
  br label %267

267:                                              ; preds = %265, %65, %22
  call void @llvm.lifetime.end.p0(i64 4, ptr %9) #16
  call void @llvm.lifetime.end.p0(i64 8, ptr %8) #16
  call void @llvm.lifetime.end.p0(i64 8, ptr %7) #16
  call void @llvm.lifetime.end.p0(i64 8, ptr %6) #16
  %268 = load ptr, ptr %3, align 8
  ret ptr %268
}