; Function Attrs: nounwind uwtable
define hidden noalias noundef ptr @_m3d_safestr(ptr noundef readonly captures(address) %0, i32 noundef %1) local_unnamed_addr #0 {
  %.not = icmp eq ptr %0, null
  br i1 %.not, label %13, label %3

3:                                                ; preds = %2
  %4 = load i8, ptr %0, align 1
  %.not86 = icmp eq i8 %4, 0
  br i1 %.not86, label %13, label %.preheader99

.preheader99:                                     ; preds = %3
  %5 = and i32 %1, 1
  %.not89 = icmp eq i32 %5, 0
  br i1 %.not89, label %.preheader99.split.us, label %.preheader99.split

.preheader99.split.us:                            ; preds = %.preheader99, %10
  %.0101.us = phi i32 [ %12, %10 ], [ 0, %.preheader99 ]
  %.075100.us = phi ptr [ %11, %10 ], [ %0, %.preheader99 ]
  %6 = phi i8 [ %.pr.us, %10 ], [ %4, %.preheader99 ]
  %.not90.us = icmp eq i8 %6, 13
  br i1 %.not90.us, label %.critedge, label %7

7:                                                ; preds = %.preheader99.split.us
  %8 = icmp ne i8 %6, 10
  %9 = icmp samesign ult i32 %.0101.us, 256
  %or.cond.us = select i1 %8, i1 %9, i1 false
  br i1 %or.cond.us, label %10, label %.critedge

10:                                               ; preds = %7
  %11 = getelementptr inbounds nuw i8, ptr %.075100.us, i64 1
  %12 = add nuw nsw i32 %.0101.us, 1
  %.pr.us = load i8, ptr %11, align 1
  %.not88.us = icmp eq i8 %.pr.us, 0
  br i1 %.not88.us, label %.critedge, label %.preheader99.split.us

13:                                               ; preds = %3, %2
  %14 = tail call noalias dereferenceable_or_null(1) ptr @malloc(i64 noundef 1) #59
  %.not87 = icmp eq ptr %14, null
  br i1 %.not87, label %66, label %15

15:                                               ; preds = %13
  store i8 0, ptr %14, align 1
  br label %66

.preheader99.split:                               ; preds = %.preheader99, %16
  %.0101 = phi i32 [ %18, %16 ], [ 0, %.preheader99 ]
  %.075100 = phi ptr [ %17, %16 ], [ %0, %.preheader99 ]
  %exitcond.not = icmp eq i32 %.0101, 256
  br i1 %exitcond.not, label %.critedge, label %16

16:                                               ; preds = %.preheader99.split
  %17 = getelementptr inbounds nuw i8, ptr %.075100, i64 1
  %18 = add nuw nsw i32 %.0101, 1
  %.pr = load i8, ptr %17, align 1
  %.not88 = icmp eq i8 %.pr, 0
  br i1 %.not88, label %.critedge, label %.preheader99.split

.critedge:                                        ; preds = %.preheader99.split, %16, %.preheader99.split.us, %7, %10
  %.us-phi = phi i32 [ %.0101.us, %7 ], [ %.0101.us, %.preheader99.split.us ], [ %12, %10 ], [ %18, %16 ], [ 256, %.preheader99.split ]
  %19 = add nuw nsw i32 %.us-phi, 1
  %20 = zext nneg i32 %19 to i64
  %21 = tail call noalias ptr @malloc(i64 noundef %20) #59
  %22 = ptrtoint ptr %21 to i64
  %.not91 = icmp eq ptr %21, null
  br i1 %.not91, label %66, label %.preheader

.preheader:                                       ; preds = %.critedge
  %.not92.not.not = icmp eq i32 %1, 0
  br i1 %.not92.not.not, label %.preheader.split.us, label %.preheader.split

.preheader.split.us:                              ; preds = %.preheader, %.critedge2.us
  %23 = phi i8 [ %.pre129, %.critedge2.us ], [ %4, %.preheader ]
  %.074.us = phi ptr [ %24, %.critedge2.us ], [ %0, %.preheader ]
  switch i8 %23, label %.critedge4.preheader [
    i8 32, label %.critedge2.us
    i8 9, label %.critedge2.us
    i8 13, label %.critedge2.us
  ]

.critedge2.us:                                    ; preds = %.preheader.split.us, %.preheader.split.us, %.preheader.split.us
  %24 = getelementptr inbounds nuw i8, ptr %.074.us, i64 1
  %.pre129 = load i8, ptr %24, align 1
  br label %.preheader.split.us

.preheader.split:                                 ; preds = %.preheader, %.critedge2
  %25 = phi i8 [ %.pre, %.critedge2 ], [ %4, %.preheader ]
  %.074 = phi ptr [ %54, %.critedge2 ], [ %0, %.preheader ]
  switch i8 %25, label %.critedge4.preheader [
    i8 32, label %.critedge2
    i8 9, label %.critedge2
    i8 13, label %.critedge2
    i8 10, label %.critedge2
  ]

.critedge4.preheader:                             ; preds = %.preheader.split, %.preheader.split.us
  %26 = phi i8 [ %23, %.preheader.split.us ], [ %25, %.preheader.split ]
  %.us-phi103 = phi ptr [ %.074.us, %.preheader.split.us ], [ %.074, %.preheader.split ]
  %.not93104 = icmp eq i8 %26, 0
  br i1 %.not93104, label %.critedge6.thread, label %.lr.ph

.critedge6.thread:                                ; preds = %.critedge4.preheader
  %.176.lcssa128132 = ptrtoint ptr %21 to i64
  br label %.critedge10

.lr.ph:                                           ; preds = %.critedge4.preheader
  %27 = icmp sgt i32 %1, 2
  %28 = icmp eq i32 %1, 1
  br i1 %.not92.not.not, label %.lr.ph.split, label %.critedge8.us

.critedge8.us:                                    ; preds = %.lr.ph, %.critedge4.us
  %29 = phi i8 [ %53, %.critedge4.us ], [ %26, %.lr.ph ]
  %.1106.us = phi ptr [ %52, %.critedge4.us ], [ %.us-phi103, %.lr.ph ]
  %.176105.us = phi ptr [ %.2.us, %.critedge4.us ], [ %21, %.lr.ph ]
  switch i8 %29, label %50 [
    i8 13, label %.critedge4.us
    i8 10, label %32
    i8 32, label %30
    i8 9, label %30
  ]

30:                                               ; preds = %.critedge8.us, %.critedge8.us
  %31 = getelementptr inbounds nuw i8, ptr %.176105.us, i64 1
  store i8 32, ptr %.176105.us, align 1
  br label %.critedge4.us

32:                                               ; preds = %.critedge8.us
  %33 = icmp ugt ptr %.176105.us, %21
  %or.cond98.us = select i1 %27, i1 %33, i1 false
  br i1 %or.cond98.us, label %34, label %38

34:                                               ; preds = %32
  %35 = getelementptr inbounds i8, ptr %.176105.us, i64 -1
  %36 = load i8, ptr %35, align 1
  %37 = icmp eq i8 %36, 10
  br i1 %37, label %.critedge6, label %38

38:                                               ; preds = %34, %32
  %39 = icmp ugt ptr %.1106.us, %0
  br i1 %39, label %40, label %44

40:                                               ; preds = %38
  %41 = getelementptr inbounds i8, ptr %.1106.us, i64 -1
  %42 = load i8, ptr %41, align 1
  %43 = icmp eq i8 %42, 10
  br i1 %43, label %.critedge4.us, label %44

44:                                               ; preds = %40, %38
  br i1 %.not89, label %.critedge6, label %45

45:                                               ; preds = %44
  br i1 %28, label %46, label %48

46:                                               ; preds = %45
  %47 = getelementptr inbounds nuw i8, ptr %.176105.us, i64 1
  store i8 13, ptr %.176105.us, align 1
  br label %48

48:                                               ; preds = %46, %45
  %.3.us = phi ptr [ %47, %46 ], [ %.176105.us, %45 ]
  %49 = getelementptr inbounds nuw i8, ptr %.3.us, i64 1
  store i8 10, ptr %.3.us, align 1
  br label %.critedge4.us

50:                                               ; preds = %.critedge8.us
  %51 = getelementptr inbounds nuw i8, ptr %.176105.us, i64 1
  store i8 %29, ptr %.176105.us, align 1
  br label %.critedge4.us

.critedge4.us:                                    ; preds = %50, %48, %40, %30, %.critedge8.us
  %.2.us = phi ptr [ %.176105.us, %.critedge8.us ], [ %.176105.us, %40 ], [ %49, %48 ], [ %31, %30 ], [ %51, %50 ]
  %52 = getelementptr inbounds nuw i8, ptr %.1106.us, i64 1
  %53 = load i8, ptr %52, align 1
  %.not93.us = icmp eq i8 %53, 0
  br i1 %.not93.us, label %.critedge6, label %.critedge8.us

.critedge2:                                       ; preds = %.preheader.split, %.preheader.split, %.preheader.split, %.preheader.split
  %54 = getelementptr inbounds nuw i8, ptr %.074, i64 1
  %.pre = load i8, ptr %54, align 1
  br label %.preheader.split

.lr.ph.split:                                     ; preds = %.lr.ph, %.critedge4
  %55 = phi i8 [ %58, %.critedge4 ], [ %26, %.lr.ph ]
  %.1106 = phi ptr [ %57, %.critedge4 ], [ %.us-phi103, %.lr.ph ]
  %.176105 = phi ptr [ %.2, %.critedge4 ], [ %21, %.lr.ph ]
  switch i8 %55, label %56 [
    i8 13, label %.critedge6
    i8 10, label %.critedge6
    i8 32, label %.critedge4
    i8 9, label %.critedge4
    i8 47, label %.critedge4
    i8 92, label %.critedge4
  ]

56:                                               ; preds = %.lr.ph.split
  br label %.critedge4

.critedge4:                                       ; preds = %56, %.lr.ph.split, %.lr.ph.split, %.lr.ph.split, %.lr.ph.split
  %storemerge = phi i8 [ 95, %.lr.ph.split ], [ 95, %.lr.ph.split ], [ %55, %56 ], [ 95, %.lr.ph.split ], [ 95, %.lr.ph.split ]
  %.2 = getelementptr inbounds nuw i8, ptr %.176105, i64 1
  store i8 %storemerge, ptr %.176105, align 1
  %57 = getelementptr inbounds nuw i8, ptr %.1106, i64 1
  %58 = load i8, ptr %57, align 1
  %.not93 = icmp eq i8 %58, 0
  br i1 %.not93, label %.critedge6, label %.lr.ph.split

.critedge6:                                       ; preds = %34, %44, %.critedge4.us, %.critedge4, %.lr.ph.split, %.lr.ph.split
  %.176.lcssa = phi ptr [ %.176105, %.lr.ph.split ], [ %.176105, %.lr.ph.split ], [ %.2, %.critedge4 ], [ %.2.us, %.critedge4.us ], [ %.176105.us, %44 ], [ %.176105.us, %34 ]
  %.176.lcssa128 = ptrtoint ptr %.176.lcssa to i64
  %59 = icmp ugt ptr %.176.lcssa, %21
  br i1 %59, label %.lr.ph119.preheader, label %.critedge10

.lr.ph119.preheader:                              ; preds = %.critedge6
  %60 = sub i64 %22, %.176.lcssa128
  %scevgep = getelementptr i8, ptr %.176.lcssa, i64 %60
  br label %.lr.ph119

.lr.ph119:                                        ; preds = %.lr.ph119.preheader, %.critedge12
  %.4118 = phi ptr [ %61, %.critedge12 ], [ %.176.lcssa, %.lr.ph119.preheader ]
  %61 = getelementptr inbounds i8, ptr %.4118, i64 -1
  %62 = load i8, ptr %61, align 1
  switch i8 %62, label %.critedge10.loopexit [
    i8 32, label %.critedge12
    i8 9, label %.critedge12
    i8 13, label %.critedge12
    i8 10, label %.critedge12
  ]

.critedge12:                                      ; preds = %.lr.ph119, %.lr.ph119, %.lr.ph119, %.lr.ph119
  %63 = icmp ugt ptr %61, %21
  br i1 %63, label %.lr.ph119, label %.critedge10.loopexit

.critedge10.loopexit:                             ; preds = %.lr.ph119, %.critedge12
  %.4.lcssa.ph = phi ptr [ %scevgep, %.critedge12 ], [ %.4118, %.lr.ph119 ]
  %.pre130 = ptrtoint ptr %.4.lcssa.ph to i64
  br label %.critedge10

.critedge10:                                      ; preds = %.critedge6.thread, %.critedge10.loopexit, %.critedge6
  %.pre-phi = phi i64 [ %.pre130, %.critedge10.loopexit ], [ %.176.lcssa128, %.critedge6 ], [ %.176.lcssa128132, %.critedge6.thread ]
  %.4.lcssa = phi ptr [ %.4.lcssa.ph, %.critedge10.loopexit ], [ %.176.lcssa, %.critedge6 ], [ %21, %.critedge6.thread ]
  store i8 0, ptr %.4.lcssa, align 1
  %reass.sub = sub i64 %.pre-phi, %22
  %64 = add i64 %reass.sub, 1
  %65 = tail call ptr @realloc(ptr noundef nonnull %21, i64 noundef %64) #55
  br label %66

66:                                               ; preds = %15, %.critedge10, %.critedge, %13
  %.078 = phi ptr [ null, %13 ], [ null, %.critedge ], [ %65, %.critedge10 ], [ %14, %15 ]
  ret ptr %.078
}